target datalayout = "e-m:e-p270:32:32-p271:32:32-p272:64:64-i64:64-i128:128-f80:128-n8:16:32:64-S128"
target triple = "x86_64-pc-linux-gnu"

%"class.boost::container::pmr::pool_resource" = type { %"struct.boost::container::pmr::pool_options", ptr, %"class.boost::container::pmr::block_list_base", ptr, i64 }
%"struct.boost::container::pmr::pool_options" = type { i64, i64 }
%"class.boost::container::pmr::block_list_base" = type { %"struct.boost::container::pmr::list_node" }
%"struct.boost::container::pmr::list_node" = type { ptr, ptr }
%"class.boost::container::pmr::pool_data_t" = type { %"class.boost::container::pmr::block_slist_base", %"struct.boost::container::pmr::slist_node", i64 }
%"class.boost::container::pmr::block_slist_base" = type { %"struct.boost::container::pmr::slist_node" }
%"struct.boost::container::pmr::slist_node" = type { ptr }

; Function Attrs: mustprogress nounwind uwtable
define hidden noundef i64 @_ZNK5boost9container3pmr13pool_resource26pool_next_blocks_per_chunkEm(ptr noundef nonnull align 8 dereferenceable(56) %0, i64 noundef %1) #1 align 2 {
  %3 = alloca i64, align 8
  %4 = alloca ptr, align 8
  %5 = alloca i64, align 8
  store ptr %0, ptr %4, align 8, !tbaa !3
  store i64 %1, ptr %5, align 8, !tbaa !7
  %6 = load ptr, ptr %4, align 8
  %7 = getelementptr inbounds nuw %"class.boost::container::pmr::pool_resource", ptr %6, i32 0, i32 3
  %8 = load ptr, ptr %7, align 8, !tbaa !15
  %9 = icmp ne ptr %8, null
  br i1 %9, label %10, label %15

10:                                               ; preds = %2
  %11 = load i64, ptr %5, align 8, !tbaa !7
  %12 = getelementptr inbounds nuw %"class.boost::container::pmr::pool_resource", ptr %6, i32 0, i32 4
  %13 = load i64, ptr %12, align 8, !tbaa !18
  %14 = icmp ult i64 %11, %13
  br label %15

15:                                               ; preds = %10, %2
  %16 = phi i1 [ false, %2 ], [ %14, %10 ]
  %17 = zext i1 %16 to i64
  %18 = call i64 @llvm.expect.i64(i64 %17, i64 1)
  %19 = icmp ne i64 %18, 0
  br i1 %19, label %20, label %27

20:                                               ; preds = %15
  %21 = getelementptr inbounds nuw %"class.boost::container::pmr::pool_resource", ptr %6, i32 0, i32 3
  %22 = load ptr, ptr %21, align 8, !tbaa !15
  %23 = load i64, ptr %5, align 8, !tbaa !7
  %24 = getelementptr inbounds nuw %"class.boost::container::pmr::pool_data_t", ptr %22, i64 %23
  %25 = getelementptr inbounds nuw %"class.boost::container::pmr::pool_data_t", ptr %24, i32 0, i32 2
  %26 = load i64, ptr %25, align 8, !tbaa !21
  store i64 %26, ptr %3, align 8
  br label %28

27:                                               ; preds = %15
  store i64 1, ptr %3, align 8
  br label %28

28:                                               ; preds = %27, %20
  %29 = load i64, ptr %3, align 8
  ret i64 %29
}