; Function Attrs: mustprogress nofree norecurse nosync nounwind willreturn memory(read, inaccessiblemem: none) uwtable
define hidden noundef i64 @_ZNK5boost9container3pmr13pool_resource26pool_next_blocks_per_chunkEm(ptr nocapture noundef nonnull readonly align 8 dereferenceable(56) %0, i64 noundef %1) local_unnamed_addr #10 align 2 {
  %3 = getelementptr inbounds nuw i8, ptr %0, i64 40
  %4 = load ptr, ptr %3, align 8, !tbaa !16
  %.not = icmp ne ptr %4, null
  %5 = getelementptr inbounds nuw i8, ptr %0, i64 48
  %6 = load i64, ptr %5, align 8
  %7 = icmp ult i64 %1, %6
  %8 = select i1 %.not, i1 %7, i1 false
  br i1 %8, label %9, label %12, !prof !37

9:                                                ; preds = %2
  %10 = getelementptr inbounds nuw %"class.boost::container::pmr::pool_data_t", ptr %4, i64 %1, i32 2
  %11 = load i64, ptr %10, align 8, !tbaa !20
  br label %12

12:                                               ; preds = %2, %9
  %.0 = phi i64 [ %11, %9 ], [ 1, %2 ]
  ret i64 %.0
}